target datalayout = "e-m:e-p270:32:32-p271:32:32-p272:64:64-i64:64-i128:128-f80:128-n8:16:32:64-S128"
target triple = "x86_64-pc-linux-gnu"

%struct.TextureObject = type { %"class.std::vector", %"class.std::vector.0" }
%"class.std::vector" = type { %"struct.std::_Vector_base" }
%"struct.std::_Vector_base" = type { %"struct.std::_Vector_base<TextureImageInfo, std::allocator<TextureImageInfo>>::_Vector_impl" }
%"struct.std::_Vector_base<TextureImageInfo, std::allocator<TextureImageInfo>>::_Vector_impl" = type { %"struct.std::_Vector_base<TextureImageInfo, std::allocator<TextureImageInfo>>::_Vector_impl_data" }
%"struct.std::_Vector_base<TextureImageInfo, std::allocator<TextureImageInfo>>::_Vector_impl_data" = type { ptr, ptr, ptr }
%"class.std::vector.0" = type { %"struct.std::_Vector_base.1" }
%"struct.std::_Vector_base.1" = type { %"struct.std::_Vector_base<unsigned int, std::allocator<unsigned int>>::_Vector_impl" }
%"struct.std::_Vector_base<unsigned int, std::allocator<unsigned int>>::_Vector_impl" = type { %"struct.std::_Vector_base<unsigned int, std::allocator<unsigned int>>::_Vector_impl_data" }
%"struct.std::_Vector_base<unsigned int, std::allocator<unsigned int>>::_Vector_impl_data" = type { ptr, ptr, ptr }
%struct.TextureImageInfo = type { %class.QImage }
%class.QImage = type { %class.QPaintDevice, ptr }
%class.QPaintDevice = type { ptr, i16, ptr }
%class.QFlags = type { i32 }

@.str.1 = private unnamed_addr constant [38 x i8] c"i >= 0 && i < (int) texInfoVec.size()\00", align 1
@.str.2 = private unnamed_addr constant [189 x i8] c"generated/home/dtcxzyw/WorkSpace/Projects/compilers/llvm-opt-benchmark/bench/meshlab/meshlab/src/meshlabplugins/filter_texture_defragmentation/TextureDefragmentation/src/texture_object.cpp\00", align 1
@.str.3 = private unnamed_addr constant [14 x i8] c"!img.isNull()\00", align 1
@__glewGenerateMipmap = external global ptr, align 8

; Function Attrs: mustprogress nounwind uwtable
define linkonce_odr noundef nonnull align 4 dereferenceable(4) ptr @_ZSt3maxIiERKT_S2_S2_(ptr noundef nonnull align 4 dereferenceable(4) %0, ptr noundef nonnull align 4 dereferenceable(4) %1) #4 comdat {
  %3 = alloca ptr, align 8
  %4 = alloca ptr, align 8
  %5 = alloca ptr, align 8
  store ptr %0, ptr %4, align 8
  store ptr %1, ptr %5, align 8
  %6 = load ptr, ptr %4, align 8
  %7 = load i32, ptr %6, align 4
  %8 = load ptr, ptr %5, align 8
  %9 = load i32, ptr %8, align 4
  %10 = icmp slt i32 %7, %9
  br i1 %10, label %11, label %13

11:                                               ; preds = %2
  %12 = load ptr, ptr %5, align 8
  store ptr %12, ptr %3, align 8
  br label %15

13:                                               ; preds = %2
  %14 = load ptr, ptr %4, align 8
  store ptr %14, ptr %3, align 8
  br label %15

15:                                               ; preds = %13, %11
  %16 = load ptr, ptr %3, align 8
  ret ptr %16
}

; Function Attrs: mustprogress nounwind uwtable
define linkonce_odr noundef float @_ZSt4log2f(float noundef %0) #4 comdat {
  %2 = alloca float, align 4
  store float %0, ptr %2, align 4
  %3 = load float, ptr %2, align 4
  %4 = call float @log2f(float noundef %3) #3
  ret float %4
}

; Function Attrs: mustprogress nounwind uwtable
define linkonce_odr void @_ZN6QFlagsIN2Qt19ImageConversionFlagEEC2ES1_(ptr noundef nonnull align 4 dereferenceable(4) %0, i32 noundef %1) unnamed_addr #4 comdat align 2 {
  %3 = alloca ptr, align 8
  %4 = alloca i32, align 4
  store ptr %0, ptr %3, align 8
  store i32 %1, ptr %4, align 4
  %5 = load ptr, ptr %3, align 8
  %6 = getelementptr inbounds %class.QFlags, ptr %5, i32 0, i32 0
  %7 = load i32, ptr %4, align 4
  store i32 %7, ptr %6, align 4
  ret void
}

; Function Attrs: mustprogress nounwind uwtable
define linkonce_odr noundef nonnull align 8 dereferenceable(32) ptr @_ZNSt6vectorI16TextureImageInfoSaIS0_EEixEm(ptr noundef nonnull align 8 dereferenceable(24) %0, i64 noundef %1) #4 comdat align 2 {
  %3 = alloca ptr, align 8
  %4 = alloca i64, align 8
  store ptr %0, ptr %3, align 8
  store i64 %1, ptr %4, align 8
  %5 = load ptr, ptr %3, align 8
  %6 = getelementptr inbounds %"struct.std::_Vector_base", ptr %5, i32 0, i32 0
  %7 = getelementptr inbounds %"struct.std::_Vector_base<TextureImageInfo, std::allocator<TextureImageInfo>>::_Vector_impl_data", ptr %6, i32 0, i32 0
  %8 = load ptr, ptr %7, align 8
  %9 = load i64, ptr %4, align 8
  %10 = getelementptr inbounds %struct.TextureImageInfo, ptr %8, i64 %9
  ret ptr %10
}

; Function Attrs: mustprogress nounwind uwtable
define linkonce_odr noundef nonnull align 4 dereferenceable(4) ptr @_ZNSt6vectorIjSaIjEEixEm(ptr noundef nonnull align 8 dereferenceable(24) %0, i64 noundef %1) #4 comdat align 2 {
  %3 = alloca ptr, align 8
  %4 = alloca i64, align 8
  store ptr %0, ptr %3, align 8
  store i64 %1, ptr %4, align 8
  %5 = load ptr, ptr %3, align 8
  %6 = getelementptr inbounds %"struct.std::_Vector_base.1", ptr %5, i32 0, i32 0
  %7 = getelementptr inbounds %"struct.std::_Vector_base<unsigned int, std::allocator<unsigned int>>::_Vector_impl_data", ptr %6, i32 0, i32 0
  %8 = load ptr, ptr %7, align 8
  %9 = load i64, ptr %4, align 8
  %10 = getelementptr inbounds i32, ptr %8, i64 %9
  ret ptr %10
}

; Function Attrs: mustprogress nounwind uwtable
define linkonce_odr noundef i64 @_ZNKSt6vectorI16TextureImageInfoSaIS0_EE4sizeEv(ptr noundef nonnull align 8 dereferenceable(24) %0) #4 comdat align 2 {
  %2 = alloca ptr, align 8
  store ptr %0, ptr %2, align 8
  %3 = load ptr, ptr %2, align 8
  %4 = getelementptr inbounds %"struct.std::_Vector_base", ptr %3, i32 0, i32 0
  %5 = getelementptr inbounds %"struct.std::_Vector_base<TextureImageInfo, std::allocator<TextureImageInfo>>::_Vector_impl_data", ptr %4, i32 0, i32 1
  %6 = load ptr, ptr %5, align 8
  %7 = getelementptr inbounds %"struct.std::_Vector_base", ptr %3, i32 0, i32 0
  %8 = getelementptr inbounds %"struct.std::_Vector_base<TextureImageInfo, std::allocator<TextureImageInfo>>::_Vector_impl_data", ptr %7, i32 0, i32 0
  %9 = load ptr, ptr %8, align 8
  %10 = ptrtoint ptr %6 to i64
  %11 = ptrtoint ptr %9 to i64
  %12 = sub i64 %10, %11
  %13 = sdiv exact i64 %12, 32
  ret i64 %13
}

; Function Attrs: mustprogress uwtable
define void @_ZN13TextureObject4BindEi(ptr noundef nonnull align 8 dereferenceable(48) %0, i32 noundef %1) #5 align 2 personality ptr @__gxx_personality_v0 {
  %3 = alloca ptr, align 8
  %4 = alloca %class.QFlags, align 4
  %5 = alloca ptr, align 8
  %6 = alloca i32, align 4
  %7 = alloca %class.QFlags, align 4
  %8 = alloca ptr, align 8
  %9 = alloca i32, align 4
  %10 = alloca ptr, align 8
  %11 = alloca %class.QImage, align 8
  %12 = alloca %class.QFlags, align 4
  %13 = alloca ptr, align 8
  %14 = alloca i32, align 4
  %15 = alloca i32, align 4
  %16 = alloca i32, align 4
  %17 = alloca i32, align 4
  %18 = alloca i32, align 4
  %19 = alloca i32, align 4
  %20 = alloca i32, align 4
  %21 = alloca i32, align 4
  %22 = alloca i32, align 4
  store ptr %0, ptr %8, align 8
  store i32 %1, ptr %9, align 4
  %23 = load ptr, ptr %8, align 8
  %24 = load i32, ptr %9, align 4
  %25 = icmp sge i32 %24, 0
  br i1 %25, label %26, label %33

26:                                               ; preds = %2
  %27 = load i32, ptr %9, align 4
  %28 = getelementptr inbounds %struct.TextureObject, ptr %23, i32 0, i32 0
  %29 = call noundef i64 @_ZNKSt6vectorI16TextureImageInfoSaIS0_EE4sizeEv(ptr noundef nonnull align 8 dereferenceable(24) %28) #3
  %30 = trunc i64 %29 to i32
  %31 = icmp slt i32 %27, %30
  br i1 %31, label %32, label %33

32:                                               ; preds = %26
  br label %35

33:                                               ; preds = %26, %2
  call void @_Z11ensure_failPKcS0_j(ptr noundef @.str.1, ptr noundef @.str.2, i32 noundef 64) #16
  unreachable

34:                                               ; No predecessors!
  br label %35

35:                                               ; preds = %34, %32
  %36 = getelementptr inbounds %struct.TextureObject, ptr %23, i32 0, i32 1
  %37 = load i32, ptr %9, align 4
  %38 = sext i32 %37 to i64
  %39 = call noundef nonnull align 4 dereferenceable(4) ptr @_ZNSt6vectorIjSaIjEEixEm(ptr noundef nonnull align 8 dereferenceable(24) %36, i64 noundef %38) #3
  %40 = load i32, ptr %39, align 4
  %41 = icmp eq i32 %40, 0
  br i1 %41, label %42, label %123

42:                                               ; preds = %35
  %43 = getelementptr inbounds %struct.TextureObject, ptr %23, i32 0, i32 0
  %44 = load i32, ptr %9, align 4
  %45 = sext i32 %44 to i64
  %46 = call noundef nonnull align 8 dereferenceable(32) ptr @_ZNSt6vectorI16TextureImageInfoSaIS0_EEixEm(ptr noundef nonnull align 8 dereferenceable(24) %43, i64 noundef %45) #3
  %47 = getelementptr inbounds %struct.TextureImageInfo, ptr %46, i32 0, i32 0
  store ptr %47, ptr %10, align 8
  %48 = load ptr, ptr %10, align 8
  %49 = call noundef zeroext i1 @_ZNK6QImage6isNullEv(ptr noundef nonnull align 8 dereferenceable(32) %48)
  br i1 %49, label %51, label %50

50:                                               ; preds = %42
  br label %53

51:                                               ; preds = %42
  call void @_Z11ensure_failPKcS0_j(ptr noundef @.str.3, ptr noundef @.str.2, i32 noundef 68) #16
  unreachable

52:                                               ; No predecessors!
  br label %53

53:                                               ; preds = %52, %50
  %54 = load ptr, ptr %10, align 8
  %55 = call noundef i32 @_ZNK6QImage6formatEv(ptr noundef nonnull align 8 dereferenceable(32) %54)
  %56 = icmp ne i32 %55, 4
  br i1 %56, label %61, label %57

57:                                               ; preds = %53
  %58 = load ptr, ptr %10, align 8
  %59 = call noundef i32 @_ZNK6QImage6formatEv(ptr noundef nonnull align 8 dereferenceable(32) %58)
  %60 = icmp ne i32 %59, 5
  br i1 %60, label %61, label %75

61:                                               ; preds = %57, %53
  %62 = load ptr, ptr %10, align 8
  call void @_ZN6QFlagsIN2Qt19ImageConversionFlagEEC2ES1_(ptr noundef nonnull align 4 dereferenceable(4) %12, i32 noundef 0) #3
  %63 = getelementptr inbounds %class.QFlags, ptr %12, i32 0, i32 0
  %64 = load i32, ptr %63, align 4
  call void @llvm.experimental.noalias.scope.decl(metadata !9)
  store ptr %11, ptr %3, align 8, !noalias !9
  store i32 %64, ptr %4, align 4, !noalias !9
  store ptr %62, ptr %5, align 8, !noalias !9
  store i32 5, ptr %6, align 4, !noalias !9
  %65 = load ptr, ptr %5, align 8, !noalias !9
  %66 = load i32, ptr %6, align 4, !noalias !9
  call void @llvm.memcpy.p0.p0.i64(ptr align 4 %7, ptr align 4 %4, i64 4, i1 false), !noalias !9
  %67 = load i32, ptr %7, align 4, !noalias !9
  call void @_ZNK6QImage22convertToFormat_helperENS_6FormatE6QFlagsIN2Qt19ImageConversionFlagEE(ptr dead_on_unwind writable sret(%class.QImage) align 8 %11, ptr noundef nonnull align 8 dereferenceable(32) %65, i32 noundef %66, i32 %67)
  %68 = load ptr, ptr %10, align 8
  %69 = invoke noundef nonnull align 8 dereferenceable(32) ptr @_ZN6QImageaSERKS_(ptr noundef nonnull align 8 dereferenceable(32) %68, ptr noundef nonnull align 8 dereferenceable(32) %11)
          to label %70 unwind label %71

70:                                               ; preds = %61
  call void @_ZN6QImageD1Ev(ptr noundef nonnull align 8 dereferenceable(32) %11) #3
  br label %75

71:                                               ; preds = %61
  %72 = landingpad { ptr, i32 }
          cleanup
  %73 = extractvalue { ptr, i32 } %72, 0
  store ptr %73, ptr %13, align 8
  %74 = extractvalue { ptr, i32 } %72, 1
  store i32 %74, ptr %14, align 4
  call void @_ZN6QImageD1Ev(ptr noundef nonnull align 8 dereferenceable(32) %11) #3
  br label %130

75:                                               ; preds = %70, %57
  %76 = getelementptr inbounds %struct.TextureObject, ptr %23, i32 0, i32 1
  %77 = load i32, ptr %9, align 4
  %78 = sext i32 %77 to i64
  %79 = call noundef nonnull align 4 dereferenceable(4) ptr @_ZNSt6vectorIjSaIjEEixEm(ptr noundef nonnull align 8 dereferenceable(24) %76, i64 noundef %78) #3
  call void @glGenTextures(i32 noundef 1, ptr noundef %79)
  %80 = load ptr, ptr %10, align 8
  call void @_Z6MirrorR6QImage(ptr noundef nonnull align 8 dereferenceable(32) %80)
  %81 = getelementptr inbounds %struct.TextureObject, ptr %23, i32 0, i32 1
  %82 = load i32, ptr %9, align 4
  %83 = sext i32 %82 to i64
  %84 = call noundef nonnull align 4 dereferenceable(4) ptr @_ZNSt6vectorIjSaIjEEixEm(ptr noundef nonnull align 8 dereferenceable(24) %81, i64 noundef %83) #3
  %85 = load i32, ptr %84, align 4
  call void @glBindTexture(i32 noundef 3553, i32 noundef %85)
  %86 = load ptr, ptr %10, align 8
  %87 = call noundef i32 @_ZNK6QImage5widthEv(ptr noundef nonnull align 8 dereferenceable(32) %86)
  %88 = sitofp i32 %87 to float
  %89 = call noundef float @_ZSt4log2f(float noundef %88)
  %90 = fptosi float %89 to i32
  store i32 %90, ptr %15, align 4
  %91 = load ptr, ptr %10, align 8
  %92 = call noundef i32 @_ZNK6QImage5widthEv(ptr noundef nonnull align 8 dereferenceable(32) %91)
  store i32 %92, ptr %16, align 4
  %93 = load ptr, ptr %10, align 8
  %94 = call noundef i32 @_ZNK6QImage6heightEv(ptr noundef nonnull align 8 dereferenceable(32) %93)
  store i32 %94, ptr %17, align 4
  store i32 0, ptr %18, align 4
  br label %95

95:                                               ; preds = %111, %75
  %96 = load i32, ptr %18, align 4
  %97 = load i32, ptr %15, align 4
  %98 = icmp slt i32 %96, %97
  br i1 %98, label %99, label %114

99:                                               ; preds = %95
  %100 = load i32, ptr %18, align 4
  %101 = load i32, ptr %16, align 4
  %102 = load i32, ptr %17, align 4
  call void @glTexImage2D(i32 noundef 3553, i32 noundef %100, i32 noundef 32856, i32 noundef %101, i32 noundef %102, i32 noundef 0, i32 noundef 32993, i32 noundef 5121, ptr noundef null)
  store i32 1, ptr %19, align 4
  %103 = load i32, ptr %16, align 4
  %104 = sdiv i32 %103, 2
  store i32 %104, ptr %20, align 4
  %105 = call noundef nonnull align 4 dereferenceable(4) ptr @_ZSt3maxIiERKT_S2_S2_(ptr noundef nonnull align 4 dereferenceable(4) %19, ptr noundef nonnull align 4 dereferenceable(4) %20)
  %106 = load i32, ptr %105, align 4
  store i32 %106, ptr %16, align 4
  store i32 1, ptr %21, align 4
  %107 = load i32, ptr %17, align 4
  %108 = sdiv i32 %107, 2
  store i32 %108, ptr %22, align 4
  %109 = call noundef nonnull align 4 dereferenceable(4) ptr @_ZSt3maxIiERKT_S2_S2_(ptr noundef nonnull align 4 dereferenceable(4) %21, ptr noundef nonnull align 4 dereferenceable(4) %22)
  %110 = load i32, ptr %109, align 4
  store i32 %110, ptr %17, align 4
  br label %111

111:                                              ; preds = %99
  %112 = load i32, ptr %18, align 4
  %113 = add nsw i32 %112, 1
  store i32 %113, ptr %18, align 4
  br label %95, !llvm.loop !12

114:                                              ; preds = %95
  %115 = load ptr, ptr %10, align 8
  %116 = call noundef i32 @_ZNK6QImage5widthEv(ptr noundef nonnull align 8 dereferenceable(32) %115)
  %117 = load ptr, ptr %10, align 8
  %118 = call noundef i32 @_ZNK6QImage6heightEv(ptr noundef nonnull align 8 dereferenceable(32) %117)
  %119 = load ptr, ptr %10, align 8
  %120 = call noundef ptr @_ZNK6QImage9constBitsEv(ptr noundef nonnull align 8 dereferenceable(32) %119)
  call void @glTexSubImage2D(i32 noundef 3553, i32 noundef 0, i32 noundef 0, i32 noundef 0, i32 noundef %116, i32 noundef %118, i32 noundef 32993, i32 noundef 5121, ptr noundef %120)
  %121 = load ptr, ptr @__glewGenerateMipmap, align 8
  call void %121(i32 noundef 3553)
  call void @_Z12CheckGLErrorv()
  %122 = load ptr, ptr %10, align 8
  call void @_Z6MirrorR6QImage(ptr noundef nonnull align 8 dereferenceable(32) %122)
  br label %129

123:                                              ; preds = %35
  %124 = getelementptr inbounds %struct.TextureObject, ptr %23, i32 0, i32 1
  %125 = load i32, ptr %9, align 4
  %126 = sext i32 %125 to i64
  %127 = call noundef nonnull align 4 dereferenceable(4) ptr @_ZNSt6vectorIjSaIjEEixEm(ptr noundef nonnull align 8 dereferenceable(24) %124, i64 noundef %126) #3
  %128 = load i32, ptr %127, align 4
  call void @glBindTexture(i32 noundef 3553, i32 noundef %128)
  call void @_Z12CheckGLErrorv()
  br label %129

129:                                              ; preds = %123, %114
  ret void

130:                                              ; preds = %71
  %131 = load ptr, ptr %13, align 8
  %132 = load i32, ptr %14, align 4
  %133 = insertvalue { ptr, i32 } poison, ptr %131, 0
  %134 = insertvalue { ptr, i32 } %133, i32 %132, 1
  resume { ptr, i32 } %134
}