; Function Attrs: mustprogress uwtable
define void @_ZN13TextureObject4BindEi(ptr nocapture noundef nonnull readonly align 8 dereferenceable(48) %0, i32 noundef %1) local_unnamed_addr #5 align 2 personality ptr @__gxx_personality_v0 {
  %3 = alloca %class.QImage, align 8
  %4 = icmp sgt i32 %1, -1
  br i1 %4, label %5, label %15

5:                                                ; preds = %2
  %6 = getelementptr inbounds i8, ptr %0, i64 8
  %7 = load ptr, ptr %6, align 8
  %8 = load ptr, ptr %0, align 8
  %9 = ptrtoint ptr %7 to i64
  %10 = ptrtoint ptr %8 to i64
  %11 = sub i64 %9, %10
  %12 = lshr exact i64 %11, 5
  %13 = trunc i64 %12 to i32
  %14 = icmp sgt i32 %13, %1
  br i1 %14, label %16, label %15

15:                                               ; preds = %5, %2
  tail call void @_Z11ensure_failPKcS0_j(ptr noundef nonnull @.str.1, ptr noundef nonnull @.str.2, i32 noundef 64) #20
  unreachable

16:                                               ; preds = %5
  %17 = getelementptr inbounds i8, ptr %0, i64 24
  %18 = zext nneg i32 %1 to i64
  %19 = load ptr, ptr %17, align 8
  %20 = getelementptr inbounds i32, ptr %19, i64 %18
  %21 = load i32, ptr %20, align 4
  %22 = icmp eq i32 %21, 0
  br i1 %22, label %23, label %56

23:                                               ; preds = %16
  %24 = getelementptr inbounds %struct.TextureImageInfo, ptr %8, i64 %18
  %25 = tail call noundef zeroext i1 @_ZNK6QImage6isNullEv(ptr noundef nonnull align 8 dereferenceable(32) %24)
  br i1 %25, label %26, label %27

26:                                               ; preds = %23
  tail call void @_Z11ensure_failPKcS0_j(ptr noundef nonnull @.str.3, ptr noundef nonnull @.str.2, i32 noundef 68) #20
  unreachable

27:                                               ; preds = %23
  %28 = tail call noundef i32 @_ZNK6QImage6formatEv(ptr noundef nonnull align 8 dereferenceable(32) %24)
  %.not = icmp eq i32 %28, 4
  br i1 %.not, label %29, label %31

29:                                               ; preds = %27
  %30 = tail call noundef i32 @_ZNK6QImage6formatEv(ptr noundef nonnull align 8 dereferenceable(32) %24)
  %.not36 = icmp eq i32 %30, 5
  br i1 %.not36, label %36, label %31

31:                                               ; preds = %29, %27
  call void @_ZNK6QImage22convertToFormat_helperENS_6FormatE6QFlagsIN2Qt19ImageConversionFlagEE(ptr dead_on_unwind nonnull writable sret(%class.QImage) align 8 %3, ptr noundef nonnull align 8 dereferenceable(32) %24, i32 noundef 5, i32 0)
  %32 = invoke noundef nonnull align 8 dereferenceable(32) ptr @_ZN6QImageaSERKS_(ptr noundef nonnull align 8 dereferenceable(32) %24, ptr noundef nonnull align 8 dereferenceable(32) %3)
          to label %33 unwind label %34

33:                                               ; preds = %31
  call void @_ZN6QImageD1Ev(ptr noundef nonnull align 8 dereferenceable(32) %3) #22
  br label %36

34:                                               ; preds = %31
  %35 = landingpad { ptr, i32 }
          cleanup
  call void @_ZN6QImageD1Ev(ptr noundef nonnull align 8 dereferenceable(32) %3) #22
  resume { ptr, i32 } %35

36:                                               ; preds = %33, %29
  %37 = load ptr, ptr %17, align 8
  %38 = getelementptr inbounds i32, ptr %37, i64 %18
  call void @glGenTextures(i32 noundef 1, ptr noundef nonnull %38)
  call void @_Z6MirrorR6QImage(ptr noundef nonnull align 8 dereferenceable(32) %24)
  %39 = load ptr, ptr %17, align 8
  %40 = getelementptr inbounds i32, ptr %39, i64 %18
  %41 = load i32, ptr %40, align 4
  call void @glBindTexture(i32 noundef 3553, i32 noundef %41)
  %42 = call noundef i32 @_ZNK6QImage5widthEv(ptr noundef nonnull align 8 dereferenceable(32) %24)
  %43 = sitofp i32 %42 to float
  %44 = call noundef float @log2f(float noundef %43) #22
  %45 = fptosi float %44 to i32
  %46 = call noundef i32 @_ZNK6QImage5widthEv(ptr noundef nonnull align 8 dereferenceable(32) %24)
  %47 = call noundef i32 @_ZNK6QImage6heightEv(ptr noundef nonnull align 8 dereferenceable(32) %24)
  %48 = icmp sgt i32 %45, 0
  br i1 %48, label %.lr.ph, label %._crit_edge

.lr.ph:                                           ; preds = %36, %.lr.ph
  %.048 = phi i32 [ %51, %.lr.ph ], [ 0, %36 ]
  %.03347 = phi i32 [ %.sroa.speculated, %.lr.ph ], [ %47, %36 ]
  %.03446 = phi i32 [ %.sroa.speculated41, %.lr.ph ], [ %46, %36 ]
  call void @glTexImage2D(i32 noundef 3553, i32 noundef %.048, i32 noundef 32856, i32 noundef %.03446, i32 noundef %.03347, i32 noundef 0, i32 noundef 32993, i32 noundef 5121, ptr noundef null)
  %49 = sdiv i32 %.03446, 2
  %.sroa.speculated41 = call i32 @llvm.smax.i32(i32 %49, i32 1)
  %50 = sdiv i32 %.03347, 2
  %.sroa.speculated = call i32 @llvm.smax.i32(i32 %50, i32 1)
  %51 = add nuw nsw i32 %.048, 1
  %exitcond.not = icmp eq i32 %51, %45
  br i1 %exitcond.not, label %._crit_edge, label %.lr.ph, !llvm.loop !19

._crit_edge:                                      ; preds = %.lr.ph, %36
  %52 = call noundef i32 @_ZNK6QImage5widthEv(ptr noundef nonnull align 8 dereferenceable(32) %24)
  %53 = call noundef i32 @_ZNK6QImage6heightEv(ptr noundef nonnull align 8 dereferenceable(32) %24)
  %54 = call noundef ptr @_ZNK6QImage9constBitsEv(ptr noundef nonnull align 8 dereferenceable(32) %24)
  call void @glTexSubImage2D(i32 noundef 3553, i32 noundef 0, i32 noundef 0, i32 noundef 0, i32 noundef %52, i32 noundef %53, i32 noundef 32993, i32 noundef 5121, ptr noundef %54)
  %55 = load ptr, ptr @__glewGenerateMipmap, align 8
  call void %55(i32 noundef 3553)
  call void @_Z12CheckGLErrorv()
  call void @_Z6MirrorR6QImage(ptr noundef nonnull align 8 dereferenceable(32) %24)
  br label %57

56:                                               ; preds = %16
  tail call void @glBindTexture(i32 noundef 3553, i32 noundef %21)
  tail call void @_Z12CheckGLErrorv()
  br label %57

57:                                               ; preds = %56, %._crit_edge
  ret void
}